; Function Attrs: mustprogress nofree nounwind willreturn memory(read) uwtable
define hidden noundef zeroext i1 @_ZN4cvc58internal6theory7strings9RegExpOpr16isPairNodesInSetERSt3setISt4pairINS0_12NodeTemplateILb1EEES7_ESt4lessIS8_ESaIS8_EES7_S7_(ptr noundef nonnull readnone align 8 captures(none) dereferenceable(544) %0, ptr noundef nonnull readonly align 8 captures(address) dereferenceable(48) %1, ptr noundef readonly captures(none) %2, ptr noundef readonly captures(none) %3) local_unnamed_addr #12 align 2 personality ptr @__gxx_personality_v0 {
  %5 = getelementptr inbounds nuw i8, ptr %1, i64 24
  %6 = load ptr, ptr %5, align 8, !tbaa !37
  %7 = getelementptr inbounds nuw i8, ptr %1, i64 8
  %.not10.not = icmp eq ptr %6, %7
  br i1 %.not10.not, label %._crit_edge, label %.lr.ph

.lr.ph:                                           ; preds = %4
  %8 = load ptr, ptr %2, align 8, !tbaa !11
  %.pre.pre = load ptr, ptr %3, align 8, !tbaa !11
  br label %9

9:                                                ; preds = %.lr.ph, %23
  %.sroa.04.011 = phi ptr [ %6, %.lr.ph ], [ %24, %23 ]
  %10 = getelementptr inbounds nuw i8, ptr %.sroa.04.011, i64 32
  %11 = load ptr, ptr %10, align 8, !tbaa !11
  %12 = icmp eq ptr %11, %8
  br i1 %12, label %13, label %17

13:                                               ; preds = %9
  %14 = getelementptr inbounds nuw i8, ptr %.sroa.04.011, i64 40
  %15 = load ptr, ptr %14, align 8, !tbaa !11
  %16 = icmp eq ptr %15, %.pre.pre
  br i1 %16, label %._crit_edge, label %17

17:                                               ; preds = %13, %9
  %18 = icmp eq ptr %11, %.pre.pre
  br i1 %18, label %19, label %23

19:                                               ; preds = %17
  %20 = getelementptr inbounds nuw i8, ptr %.sroa.04.011, i64 40
  %21 = load ptr, ptr %20, align 8, !tbaa !11
  %22 = icmp eq ptr %21, %8
  br i1 %22, label %._crit_edge, label %23

23:                                               ; preds = %17, %19
  %24 = tail call noundef ptr @_ZSt18_Rb_tree_incrementPKSt18_Rb_tree_node_base(ptr noundef nonnull %.sroa.04.011) #29
  %.not.not = icmp eq ptr %24, %7
  br i1 %.not.not, label %._crit_edge, label %9, !llvm.loop !767

._crit_edge:                                      ; preds = %23, %19, %13, %4
  %.not.lcssa = phi i1 [ false, %4 ], [ true, %13 ], [ true, %19 ], [ false, %23 ]
  ret i1 %.not.lcssa
}